target datalayout = "e-m:e-p270:32:32-p271:32:32-p272:64:64-i64:64-i128:128-f80:128-n8:16:32:64-S128"
target triple = "x86_64-unknown-linux-gnu"

%struct.HashMap = type { ptr, i32, i32 }
%struct.StringArray = type { ptr, i32, i32 }

@search_include_paths.cache = internal global %struct.HashMap zeroinitializer, align 8
@include_paths = external global %struct.StringArray, align 8
@.str = private unnamed_addr constant [6 x i8] c"%s/%s\00", align 1
@include_next_idx = internal global i32 0, align 4

; Function Attrs: nounwind uwtable
define dso_local ptr @search_include_paths(ptr noundef %filename) #0 {
entry:
  %retval = alloca ptr, align 8
  %filename.addr = alloca ptr, align 8
  %cached = alloca ptr, align 8
  %i = alloca i32, align 4
  %path = alloca ptr, align 8
  store ptr %filename, ptr %filename.addr, align 8
  %0 = load ptr, ptr %filename.addr, align 8
  %arrayidx = getelementptr inbounds i8, ptr %0, i64 0
  %1 = load i8, ptr %arrayidx, align 1
  %conv = sext i8 %1 to i32
  %cmp = icmp eq i32 %conv, 47
  br i1 %cmp, label %if.then, label %if.end

if.then:                                          ; preds = %entry
  %2 = load ptr, ptr %filename.addr, align 8
  store ptr %2, ptr %retval, align 8
  br label %return

if.end:                                           ; preds = %entry
  %3 = load ptr, ptr %filename.addr, align 8
  %call = call ptr @hashmap_get(ptr noundef @search_include_paths.cache, ptr noundef %3)
  store ptr %call, ptr %cached, align 8
  %4 = load ptr, ptr %cached, align 8
  %tobool = icmp ne ptr %4, null
  br i1 %tobool, label %if.then2, label %if.end3

if.then2:                                         ; preds = %if.end
  %5 = load ptr, ptr %cached, align 8
  store ptr %5, ptr %retval, align 8
  br label %return

if.end3:                                          ; preds = %if.end
  store i32 0, ptr %i, align 4
  br label %for.cond

for.cond:                                         ; preds = %for.inc, %if.end3
  %6 = load i32, ptr %i, align 4
  %7 = load i32, ptr getelementptr inbounds (%struct.StringArray, ptr @include_paths, i32 0, i32 2), align 4
  %cmp4 = icmp slt i32 %6, %7
  br i1 %cmp4, label %for.body, label %for.end

for.body:                                         ; preds = %for.cond
  %8 = load ptr, ptr @include_paths, align 8
  %9 = load i32, ptr %i, align 4
  %idxprom = sext i32 %9 to i64
  %arrayidx6 = getelementptr inbounds ptr, ptr %8, i64 %idxprom
  %10 = load ptr, ptr %arrayidx6, align 8
  %11 = load ptr, ptr %filename.addr, align 8
  %call7 = call ptr (ptr, ...) @format(ptr noundef @.str, ptr noundef %10, ptr noundef %11)
  store ptr %call7, ptr %path, align 8
  %12 = load ptr, ptr %path, align 8
  %call8 = call zeroext i1 @file_exists(ptr noundef %12)
  br i1 %call8, label %if.end10, label %if.then9

if.then9:                                         ; preds = %for.body
  br label %for.inc

if.end10:                                         ; preds = %for.body
  %13 = load ptr, ptr %filename.addr, align 8
  %14 = load ptr, ptr %path, align 8
  call void @hashmap_put(ptr noundef @search_include_paths.cache, ptr noundef %13, ptr noundef %14)
  %15 = load i32, ptr %i, align 4
  %add = add nsw i32 %15, 1
  store i32 %add, ptr @include_next_idx, align 4
  %16 = load ptr, ptr %path, align 8
  store ptr %16, ptr %retval, align 8
  br label %return

for.inc:                                          ; preds = %if.then9
  %17 = load i32, ptr %i, align 4
  %inc = add nsw i32 %17, 1
  store i32 %inc, ptr %i, align 4
  br label %for.cond, !llvm.loop !7

for.end:                                          ; preds = %for.cond
  store ptr null, ptr %retval, align 8
  br label %return

return:                                           ; preds = %for.end, %if.end10, %if.then2, %if.then
  %18 = load ptr, ptr %retval, align 8
  ret ptr %18
}