; Function Attrs: nounwind uwtable
define dso_local ptr @search_include_paths(ptr noundef %filename) local_unnamed_addr #0 {
entry:
  %0 = load i8, ptr %filename, align 1
  %cmp = icmp eq i8 %0, 47
  br i1 %cmp, label %return, label %if.end

if.end:                                           ; preds = %entry
  %call = tail call ptr @hashmap_get(ptr noundef nonnull @search_include_paths.cache, ptr noundef nonnull %filename) #14
  %tobool.not = icmp eq ptr %call, null
  br i1 %tobool.not, label %for.cond.preheader, label %return

for.cond.preheader:                               ; preds = %if.end
  %1 = load i32, ptr getelementptr inbounds (%struct.StringArray, ptr @include_paths, i64 0, i32 2), align 4
  %cmp412 = icmp sgt i32 %1, 0
  br i1 %cmp412, label %for.body, label %return

for.body:                                         ; preds = %for.cond.preheader, %for.inc
  %indvars.iv = phi i64 [ %indvars.iv.next, %for.inc ], [ 0, %for.cond.preheader ]
  %2 = load ptr, ptr @include_paths, align 8
  %arrayidx6 = getelementptr inbounds ptr, ptr %2, i64 %indvars.iv
  %3 = load ptr, ptr %arrayidx6, align 8
  %call7 = tail call ptr (ptr, ...) @format(ptr noundef nonnull @.str, ptr noundef %3, ptr noundef nonnull %filename) #14
  %call8 = tail call zeroext i1 @file_exists(ptr noundef %call7) #14
  br i1 %call8, label %if.end10, label %for.inc

if.end10:                                         ; preds = %for.body
  %4 = trunc i64 %indvars.iv to i32
  tail call void @hashmap_put(ptr noundef nonnull @search_include_paths.cache, ptr noundef nonnull %filename, ptr noundef %call7) #14
  %add = add nuw nsw i32 %4, 1
  store i32 %add, ptr @include_next_idx, align 4
  br label %return

for.inc:                                          ; preds = %for.body
  %indvars.iv.next = add nuw nsw i64 %indvars.iv, 1
  %5 = load i32, ptr getelementptr inbounds (%struct.StringArray, ptr @include_paths, i64 0, i32 2), align 4
  %6 = sext i32 %5 to i64
  %cmp4 = icmp slt i64 %indvars.iv.next, %6
  br i1 %cmp4, label %for.body, label %return, !llvm.loop !7

return:                                           ; preds = %for.inc, %for.cond.preheader, %if.end, %entry, %if.end10
  %retval.0 = phi ptr [ %call7, %if.end10 ], [ %filename, %entry ], [ %call, %if.end ], [ null, %for.cond.preheader ], [ null, %for.inc ]
  ret ptr %retval.0
}